target datalayout = "e-m:e-p270:32:32-p271:32:32-p272:64:64-i64:64-i128:128-f80:128-n8:16:32:64-S128"
target triple = "x86_64-pc-linux-gnu"

@hf_zbee_nwk_gp_zcl_attr_cluster_id = internal global i32 0, align 4
@ett_zbee_nwk_clu_rec = internal global i32 0, align 4
@.str.314 = private unnamed_addr constant [15 x i8] c"Cluster record\00", align 1

; Function Attrs: null_pointer_is_valid sspstrong uwtable
define internal i32 @dissect_zbee_nwk_gp_cmd_multi_cluster_reporting(ptr noundef %0, ptr noundef %1, ptr noundef %2, ptr noundef %3, i32 noundef %4, i16 noundef zeroext %5) #1 {
  %7 = alloca ptr, align 8
  %8 = alloca ptr, align 8
  %9 = alloca ptr, align 8
  %10 = alloca ptr, align 8
  %11 = alloca i32, align 4
  %12 = alloca i16, align 2
  %13 = alloca ptr, align 8
  %14 = alloca i16, align 2
  %15 = alloca i16, align 2
  %16 = alloca i32, align 4
  store ptr %0, ptr %7, align 8
  store ptr %1, ptr %8, align 8
  store ptr %2, ptr %9, align 8
  store ptr %3, ptr %10, align 8
  store i32 %4, ptr %11, align 4
  store i16 %5, ptr %12, align 2
  call void @llvm.lifetime.start.p0(i64 8, ptr %13) #11
  store ptr null, ptr %13, align 8
  call void @llvm.lifetime.start.p0(i64 2, ptr %14) #11
  call void @llvm.lifetime.start.p0(i64 2, ptr %15) #11
  call void @llvm.lifetime.start.p0(i64 4, ptr %16) #11
  %17 = load ptr, ptr %7, align 8
  %18 = call i32 @tvb_captured_length(ptr noundef %17)
  store i32 %18, ptr %16, align 4
  br label %19

19:                                               ; preds = %23, %6
  %20 = load i32, ptr %11, align 4
  %21 = load i32, ptr %16, align 4
  %22 = icmp ult i32 %20, %21
  br i1 %22, label %23, label %51

23:                                               ; preds = %19
  %24 = load ptr, ptr %9, align 8
  %25 = load ptr, ptr %7, align 8
  %26 = load i32, ptr %11, align 4
  %27 = load i32, ptr @ett_zbee_nwk_clu_rec, align 4
  %28 = call ptr (ptr, ptr, i32, i32, i32, ptr, ptr, ...) @proto_tree_add_subtree_format(ptr noundef %24, ptr noundef %25, i32 noundef %26, i32 noundef 0, i32 noundef %27, ptr noundef null, ptr noundef @.str.314)
  store ptr %28, ptr %13, align 8
  %29 = load ptr, ptr %7, align 8
  %30 = load i32, ptr %11, align 4
  %31 = call zeroext i16 @tvb_get_letohs(ptr noundef %29, i32 noundef %30)
  store i16 %31, ptr %14, align 2
  %32 = load ptr, ptr %13, align 8
  %33 = load i32, ptr @hf_zbee_nwk_gp_zcl_attr_cluster_id, align 4
  %34 = load ptr, ptr %7, align 8
  %35 = load i32, ptr %11, align 4
  %36 = call ptr @proto_tree_add_item(ptr noundef %32, i32 noundef %33, ptr noundef %34, i32 noundef %35, i32 noundef 2, i32 noundef -2147483648)
  %37 = load i32, ptr %11, align 4
  %38 = add i32 %37, 2
  store i32 %38, ptr %11, align 4
  %39 = load ptr, ptr %7, align 8
  %40 = load i32, ptr %11, align 4
  %41 = call zeroext i16 @tvb_get_letohs(ptr noundef %39, i32 noundef %40)
  store i16 %41, ptr %15, align 2
  %42 = load ptr, ptr %7, align 8
  %43 = load ptr, ptr %13, align 8
  %44 = load i16, ptr %14, align 2
  %45 = load i16, ptr %12, align 2
  call void @dissect_zcl_attr_id(ptr noundef %42, ptr noundef %43, ptr noundef %11, i16 noundef zeroext %44, i16 noundef zeroext %45, i1 noundef zeroext true)
  %46 = load ptr, ptr %7, align 8
  %47 = load ptr, ptr %13, align 8
  %48 = load i16, ptr %15, align 2
  %49 = load i16, ptr %14, align 2
  %50 = load i16, ptr %12, align 2
  call void @dissect_zcl_attr_data_type_val(ptr noundef %46, ptr noundef %47, ptr noundef %11, i16 noundef zeroext %48, i16 noundef zeroext %49, i16 noundef zeroext %50, i1 noundef zeroext true)
  br label %19, !llvm.loop !15

51:                                               ; preds = %19
  %52 = load i32, ptr %11, align 4
  call void @llvm.lifetime.end.p0(i64 4, ptr %16) #11
  call void @llvm.lifetime.end.p0(i64 2, ptr %15) #11
  call void @llvm.lifetime.end.p0(i64 2, ptr %14) #11
  call void @llvm.lifetime.end.p0(i64 8, ptr %13) #11
  ret i32 %52
}