; Function Attrs: null_pointer_is_valid sspstrong uwtable
define internal fastcc range(i32 1, 0) i32 @dissect_zbee_nwk_gp_cmd_multi_cluster_reporting(ptr noundef %0, ptr noundef %1, i32 noundef range(i32 1, 4) %2, i16 noundef zeroext %3) unnamed_addr #1 {
  %5 = alloca i32, align 4
  store i32 %2, ptr %5, align 4
  %6 = tail call i32 @tvb_captured_length(ptr noundef %0)
  %7 = icmp ult i32 %2, %6
  br i1 %7, label %.lr.ph, label %._crit_edge

.lr.ph:                                           ; preds = %4, %.lr.ph
  %8 = phi i32 [ %19, %.lr.ph ], [ %2, %4 ]
  %9 = load i32, ptr @ett_zbee_nwk_clu_rec, align 4
  %10 = call ptr (ptr, ptr, i32, i32, i32, ptr, ptr, ...) @proto_tree_add_subtree_format(ptr noundef %1, ptr noundef %0, i32 noundef %8, i32 noundef 0, i32 noundef %9, ptr noundef null, ptr noundef nonnull @.str.314)
  %11 = load i32, ptr %5, align 4
  %12 = call zeroext i16 @tvb_get_letohs(ptr noundef %0, i32 noundef %11)
  %13 = load i32, ptr @hf_zbee_nwk_gp_zcl_attr_cluster_id, align 4
  %14 = load i32, ptr %5, align 4
  %15 = call ptr @proto_tree_add_item(ptr noundef %10, i32 noundef %13, ptr noundef %0, i32 noundef %14, i32 noundef 2, i32 noundef -2147483648)
  %16 = load i32, ptr %5, align 4
  %17 = add i32 %16, 2
  store i32 %17, ptr %5, align 4
  %18 = call zeroext i16 @tvb_get_letohs(ptr noundef %0, i32 noundef %17)
  call void @dissect_zcl_attr_id(ptr noundef %0, ptr noundef %10, ptr noundef nonnull %5, i16 noundef zeroext %12, i16 noundef zeroext %3, i1 noundef zeroext true)
  call void @dissect_zcl_attr_data_type_val(ptr noundef %0, ptr noundef %10, ptr noundef nonnull %5, i16 noundef zeroext %18, i16 noundef zeroext %12, i16 noundef zeroext %3, i1 noundef zeroext true)
  %19 = load i32, ptr %5, align 4
  %20 = icmp ult i32 %19, %6
  br i1 %20, label %.lr.ph, label %._crit_edge, !llvm.loop !24

._crit_edge:                                      ; preds = %.lr.ph, %4
  %.lcssa = phi i32 [ %2, %4 ], [ %19, %.lr.ph ]
  ret i32 %.lcssa
}